; Function Attrs: null_pointer_is_valid sspstrong uwtable
define internal void @color_filter_delete_cb(ptr noundef %0) #0 {
  %2 = load ptr, ptr %0, align 8
  tail call void @g_free(ptr noundef %2)
  %3 = getelementptr inbounds nuw i8, ptr %0, i64 8
  %4 = load ptr, ptr %3, align 8
  tail call void @g_free(ptr noundef %4)
  %5 = getelementptr inbounds nuw i8, ptr %0, i64 32
  %6 = load ptr, ptr %5, align 8
  tail call void @dfilter_free(ptr noundef %6)
  tail call void @g_free(ptr noundef %0)
  ret void
}